target datalayout = "e-m:e-p270:32:32-p271:32:32-p272:64:64-i64:64-i128:128-f80:128-n8:16:32:64-S128"
target triple = "x86_64-pc-linux-gnu"

%"class.ncnn::Option" = type { i8, i32, ptr, ptr, i32, i8, i8, i8, i8, i8, i8, i8, i8, i8, i8, i8, i8, i8, i8, i8, i8, i8, i8, i8, i8, i32, i8, i8, i8, i8, i8, i8, i8, i8, i8, i8, i8, i8 }
%"class.std::vector.28" = type { %"struct.std::_Vector_base.29" }
%"struct.std::_Vector_base.29" = type { %"struct.std::_Vector_base<ncnn::Mat, std::allocator<ncnn::Mat>>::_Vector_impl" }
%"struct.std::_Vector_base<ncnn::Mat, std::allocator<ncnn::Mat>>::_Vector_impl" = type { %"struct.std::_Vector_base<ncnn::Mat, std::allocator<ncnn::Mat>>::_Vector_impl_data" }
%"struct.std::_Vector_base<ncnn::Mat, std::allocator<ncnn::Mat>>::_Vector_impl_data" = type { ptr, ptr, ptr }
%"class.ncnn::Extractor" = type { ptr, ptr }
%"class.ncnn::ExtractorPrivate" = type { ptr, %"class.std::vector.28", %"class.ncnn::Option" }

@_ZTVN4ncnn9ExtractorE = hidden unnamed_addr constant { [4 x ptr] } { [4 x ptr] [ptr null, ptr @_ZTIN4ncnn9ExtractorE, ptr @_ZN4ncnn9ExtractorD1Ev, ptr @_ZN4ncnn9ExtractorD0Ev] }, align 8

; Function Attrs: mustprogress nounwind uwtable
define linkonce_odr hidden void @_ZNSt15__new_allocatorIN4ncnn3MatEEC2Ev(ptr noundef nonnull align 1 dereferenceable(1) %0) unnamed_addr #0 comdat align 2 {
  %2 = alloca ptr, align 8
  store ptr %0, ptr %2, align 8, !tbaa !227
  ret void
}

; Function Attrs: mustprogress nounwind uwtable
define linkonce_odr hidden void @_ZNSt12_Vector_baseIN4ncnn3MatESaIS1_EE17_Vector_impl_dataC2Ev(ptr noundef nonnull align 8 dereferenceable(24) %0) unnamed_addr #0 comdat align 2 {
  %2 = alloca ptr, align 8
  store ptr %0, ptr %2, align 8, !tbaa !237
  %3 = load ptr, ptr %2, align 8
  %4 = getelementptr inbounds nuw %"struct.std::_Vector_base<ncnn::Mat, std::allocator<ncnn::Mat>>::_Vector_impl_data", ptr %3, i32 0, i32 0
  store ptr null, ptr %4, align 8, !tbaa !184
  %5 = getelementptr inbounds nuw %"struct.std::_Vector_base<ncnn::Mat, std::allocator<ncnn::Mat>>::_Vector_impl_data", ptr %3, i32 0, i32 1
  store ptr null, ptr %5, align 8, !tbaa !229
  %6 = getelementptr inbounds nuw %"struct.std::_Vector_base<ncnn::Mat, std::allocator<ncnn::Mat>>::_Vector_impl_data", ptr %3, i32 0, i32 2
  store ptr null, ptr %6, align 8, !tbaa !232
  ret void
}

; Function Attrs: mustprogress nounwind uwtable
define linkonce_odr hidden void @_ZNSaIN4ncnn3MatEEC2Ev(ptr noundef nonnull align 1 dereferenceable(1) %0) unnamed_addr #0 comdat align 2 {
  %2 = alloca ptr, align 8
  store ptr %0, ptr %2, align 8, !tbaa !225
  %3 = load ptr, ptr %2, align 8
  call void @_ZNSt15__new_allocatorIN4ncnn3MatEEC2Ev(ptr noundef nonnull align 1 dereferenceable(1) %3) #16
  ret void
}

; Function Attrs: mustprogress nounwind uwtable
define linkonce_odr hidden void @_ZNSt12_Vector_baseIN4ncnn3MatESaIS1_EE12_Vector_implC2Ev(ptr noundef nonnull align 8 dereferenceable(24) %0) unnamed_addr #0 comdat align 2 {
  %2 = alloca ptr, align 8
  store ptr %0, ptr %2, align 8, !tbaa !235
  %3 = load ptr, ptr %2, align 8
  call void @_ZNSaIN4ncnn3MatEEC2Ev(ptr noundef nonnull align 1 dereferenceable(1) %3) #16
  call void @_ZNSt12_Vector_baseIN4ncnn3MatESaIS1_EE17_Vector_impl_dataC2Ev(ptr noundef nonnull align 8 dereferenceable(24) %3) #16
  ret void
}

; Function Attrs: mustprogress nounwind uwtable
define linkonce_odr hidden void @_ZNSt12_Vector_baseIN4ncnn3MatESaIS1_EEC2Ev(ptr noundef nonnull align 8 dereferenceable(24) %0) unnamed_addr #0 comdat align 2 {
  %2 = alloca ptr, align 8
  store ptr %0, ptr %2, align 8, !tbaa !230
  %3 = load ptr, ptr %2, align 8
  %4 = getelementptr inbounds nuw %"struct.std::_Vector_base.29", ptr %3, i32 0, i32 0
  call void @_ZNSt12_Vector_baseIN4ncnn3MatESaIS1_EE12_Vector_implC2Ev(ptr noundef nonnull align 8 dereferenceable(24) %4) #16
  ret void
}

; Function Attrs: mustprogress nounwind uwtable
define linkonce_odr hidden void @_ZNSt6vectorIN4ncnn3MatESaIS1_EEC2Ev(ptr noundef nonnull align 8 dereferenceable(24) %0) unnamed_addr #0 comdat align 2 {
  %2 = alloca ptr, align 8
  store ptr %0, ptr %2, align 8, !tbaa !176
  %3 = load ptr, ptr %2, align 8
  call void @_ZNSt12_Vector_baseIN4ncnn3MatESaIS1_EEC2Ev(ptr noundef nonnull align 8 dereferenceable(24) %3) #16
  ret void
}

; Function Attrs: mustprogress uwtable
define linkonce_odr hidden void @_ZN4ncnn16ExtractorPrivateC2EPKNS_3NetE(ptr noundef nonnull align 8 dereferenceable(96) %0, ptr noundef %1) unnamed_addr #1 comdat align 2 personality ptr @__gxx_personality_v0 {
  %3 = alloca ptr, align 8
  %4 = alloca ptr, align 8
  %5 = alloca ptr, align 8
  %6 = alloca i32, align 4
  store ptr %0, ptr %3, align 8, !tbaa !380
  store ptr %1, ptr %4, align 8, !tbaa !4
  %7 = load ptr, ptr %3, align 8
  %8 = getelementptr inbounds nuw %"class.ncnn::ExtractorPrivate", ptr %7, i32 0, i32 0
  %9 = load ptr, ptr %4, align 8, !tbaa !4
  store ptr %9, ptr %8, align 8, !tbaa !378
  %10 = getelementptr inbounds nuw %"class.ncnn::ExtractorPrivate", ptr %7, i32 0, i32 1
  call void @_ZNSt6vectorIN4ncnn3MatESaIS1_EEC2Ev(ptr noundef nonnull align 8 dereferenceable(24) %10) #16
  %11 = getelementptr inbounds nuw %"class.ncnn::ExtractorPrivate", ptr %7, i32 0, i32 2
  invoke void @_ZN4ncnn6OptionC1Ev(ptr noundef nonnull align 8 dereferenceable(64) %11)
          to label %12 unwind label %13

12:                                               ; preds = %2
  ret void

13:                                               ; preds = %2
  %14 = landingpad { ptr, i32 }
          cleanup
  %15 = extractvalue { ptr, i32 } %14, 0
  store ptr %15, ptr %5, align 8
  %16 = extractvalue { ptr, i32 } %14, 1
  store i32 %16, ptr %6, align 4
  call void @_ZNSt6vectorIN4ncnn3MatESaIS1_EED2Ev(ptr noundef nonnull align 8 dereferenceable(24) %10) #16
  br label %17

17:                                               ; preds = %13
  %18 = load ptr, ptr %5, align 8
  %19 = load i32, ptr %6, align 4
  %20 = insertvalue { ptr, i32 } poison, ptr %18, 0
  %21 = insertvalue { ptr, i32 } %20, i32 %19, 1
  resume { ptr, i32 } %21
}

; Function Attrs: mustprogress uwtable
define hidden void @_ZN4ncnn9ExtractorC2ERKS0_(ptr noundef nonnull align 8 dereferenceable(16) %0, ptr noundef nonnull align 8 dereferenceable(16) %1) unnamed_addr #1 align 2 personality ptr @__gxx_personality_v0 {
  %3 = alloca ptr, align 8
  %4 = alloca ptr, align 8
  %5 = alloca ptr, align 8
  %6 = alloca i32, align 4
  store ptr %0, ptr %3, align 8, !tbaa !51
  store ptr %1, ptr %4, align 8, !tbaa !51
  %7 = load ptr, ptr %3, align 8
  store ptr getelementptr inbounds inrange(-16, 16) ({ [4 x ptr] }, ptr @_ZTVN4ncnn9ExtractorE, i32 0, i32 0, i32 2), ptr %7, align 8, !tbaa !24
  %8 = getelementptr inbounds nuw %"class.ncnn::Extractor", ptr %7, i32 0, i32 1
  %9 = call noalias noundef nonnull ptr @_Znwm(i64 noundef 96) #21
  invoke void @_ZN4ncnn16ExtractorPrivateC2EPKNS_3NetE(ptr noundef nonnull align 8 dereferenceable(96) %9, ptr noundef null)
          to label %10 unwind label %34

10:                                               ; preds = %2
  store ptr %9, ptr %8, align 8, !tbaa !375
  %11 = load ptr, ptr %4, align 8, !tbaa !51
  %12 = getelementptr inbounds nuw %"class.ncnn::Extractor", ptr %11, i32 0, i32 1
  %13 = load ptr, ptr %12, align 8, !tbaa !375
  %14 = getelementptr inbounds nuw %"class.ncnn::ExtractorPrivate", ptr %13, i32 0, i32 0
  %15 = load ptr, ptr %14, align 8, !tbaa !378
  %16 = getelementptr inbounds nuw %"class.ncnn::Extractor", ptr %7, i32 0, i32 1
  %17 = load ptr, ptr %16, align 8, !tbaa !375
  %18 = getelementptr inbounds nuw %"class.ncnn::ExtractorPrivate", ptr %17, i32 0, i32 0
  store ptr %15, ptr %18, align 8, !tbaa !378
  %19 = load ptr, ptr %4, align 8, !tbaa !51
  %20 = getelementptr inbounds nuw %"class.ncnn::Extractor", ptr %19, i32 0, i32 1
  %21 = load ptr, ptr %20, align 8, !tbaa !375
  %22 = getelementptr inbounds nuw %"class.ncnn::ExtractorPrivate", ptr %21, i32 0, i32 1
  %23 = getelementptr inbounds nuw %"class.ncnn::Extractor", ptr %7, i32 0, i32 1
  %24 = load ptr, ptr %23, align 8, !tbaa !375
  %25 = getelementptr inbounds nuw %"class.ncnn::ExtractorPrivate", ptr %24, i32 0, i32 1
  %26 = call noundef nonnull align 8 dereferenceable(24) ptr @_ZNSt6vectorIN4ncnn3MatESaIS1_EEaSERKS3_(ptr noundef nonnull align 8 dereferenceable(24) %25, ptr noundef nonnull align 8 dereferenceable(24) %22)
  %27 = load ptr, ptr %4, align 8, !tbaa !51
  %28 = getelementptr inbounds nuw %"class.ncnn::Extractor", ptr %27, i32 0, i32 1
  %29 = load ptr, ptr %28, align 8, !tbaa !375
  %30 = getelementptr inbounds nuw %"class.ncnn::ExtractorPrivate", ptr %29, i32 0, i32 2
  %31 = getelementptr inbounds nuw %"class.ncnn::Extractor", ptr %7, i32 0, i32 1
  %32 = load ptr, ptr %31, align 8, !tbaa !375
  %33 = getelementptr inbounds nuw %"class.ncnn::ExtractorPrivate", ptr %32, i32 0, i32 2
  call void @llvm.memcpy.p0.p0.i64(ptr align 8 %33, ptr align 8 %30, i64 64, i1 false), !tbaa.struct !197
  ret void

34:                                               ; preds = %2
  %35 = landingpad { ptr, i32 }
          cleanup
  %36 = extractvalue { ptr, i32 } %35, 0
  store ptr %36, ptr %5, align 8
  %37 = extractvalue { ptr, i32 } %35, 1
  store i32 %37, ptr %6, align 4
  call void @_ZdlPvm(ptr noundef %9, i64 noundef 96) #17
  br label %38

38:                                               ; preds = %34
  %39 = load ptr, ptr %5, align 8
  %40 = load i32, ptr %6, align 4
  %41 = insertvalue { ptr, i32 } poison, ptr %39, 0
  %42 = insertvalue { ptr, i32 } %41, i32 %40, 1
  resume { ptr, i32 } %42
}