; Function Attrs: mustprogress uwtable
define hidden void @_ZN4ncnn9ExtractorC2ERKS0_(ptr noundef nonnull align 8 captures(none) dereferenceable(16) initializes((0, 8)) %0, ptr noundef nonnull readonly align 8 captures(none) dereferenceable(16) %1) unnamed_addr #2 align 2 personality ptr @__gxx_personality_v0 {
  store ptr getelementptr inbounds nuw inrange(-16, 16) (i8, ptr @_ZTVN4ncnn9ExtractorE, i64 16), ptr %0, align 8, !tbaa !4
  %3 = tail call noalias noundef nonnull dereferenceable(96) ptr @_Znwm(i64 noundef 96) #31
  %4 = getelementptr inbounds nuw i8, ptr %3, i64 8
  %5 = getelementptr inbounds nuw i8, ptr %3, i64 32
  tail call void @llvm.memset.p0.i64(ptr noundef nonnull align 8 dereferenceable(32) %3, i8 0, i64 32, i1 false)
  invoke void @_ZN4ncnn6OptionC1Ev(ptr noundef nonnull align 8 dereferenceable(64) %5)
          to label %_ZN4ncnn16ExtractorPrivateC2EPKNS_3NetE.exit unwind label %.body

.body:                                            ; preds = %2
  %6 = landingpad { ptr, i32 }
          cleanup
  tail call void @_ZNSt6vectorIN4ncnn3MatESaIS1_EED2Ev(ptr noundef nonnull align 8 dereferenceable(24) %4) #26
  tail call void @_ZdlPvm(ptr noundef nonnull %3, i64 noundef 96) #27
  resume { ptr, i32 } %6

_ZN4ncnn16ExtractorPrivateC2EPKNS_3NetE.exit:     ; preds = %2
  %7 = getelementptr inbounds nuw i8, ptr %0, i64 8
  store ptr %3, ptr %7, align 8, !tbaa !213
  %8 = getelementptr inbounds nuw i8, ptr %1, i64 8
  %9 = load ptr, ptr %8, align 8, !tbaa !213
  %10 = load ptr, ptr %9, align 8, !tbaa !210
  store ptr %10, ptr %3, align 8, !tbaa !210
  %11 = getelementptr inbounds nuw i8, ptr %9, i64 8
  %12 = tail call noundef nonnull align 8 dereferenceable(24) ptr @_ZNSt6vectorIN4ncnn3MatESaIS1_EEaSERKS3_(ptr noundef nonnull align 8 dereferenceable(24) %4, ptr noundef nonnull align 8 dereferenceable(24) %11)
  %13 = load ptr, ptr %8, align 8, !tbaa !213
  %14 = getelementptr inbounds nuw i8, ptr %13, i64 32
  %15 = load ptr, ptr %7, align 8, !tbaa !213
  %16 = getelementptr inbounds nuw i8, ptr %15, i64 32
  tail call void @llvm.memcpy.p0.p0.i64(ptr noundef nonnull align 8 dereferenceable(64) %16, ptr noundef nonnull align 8 dereferenceable(64) %14, i64 64, i1 false), !tbaa.struct !72
  ret void
}